target datalayout = "e-m:e-p270:32:32-p271:32:32-p272:64:64-i64:64-i128:128-f80:128-n8:16:32:64-S128"
target triple = "x86_64-pc-linux-gnu"

%struct.redisServer = type { i32, i64, ptr, ptr, ptr, i32, i32, i32, i32, i32, ptr, ptr, ptr, ptr, ptr, i32, i32, i32, i32, i64, i32, i32, i32, i32, ptr, i32, i32, [41 x i8], i32, i64, i32, i32, i32, ptr, ptr, i32, i32, i64, ptr, ptr, ptr, ptr, [2 x i32], i32, i32, i32, i32, i32, i32, [16 x ptr], i32, ptr, ptr, i32, [8 x %struct.connListener], i32, %struct.connListener, ptr, ptr, ptr, ptr, ptr, ptr, ptr, ptr, ptr, ptr, i32, ptr, i32, ptr, [3 x %struct.pause_event], [256 x i8], ptr, i64, i32, i32, [128 x i32], i32, i32, i64, i32, i32, i32, i32, i32, i64, i64, i64, i64, i64, i64, i64, i64, i64, i64, double, i64, i64, i64, i64, i64, i64, i64, i64, i64, i64, i64, i64, i64, i64, i64, i64, i64, i64, i64, i64, i64, double, i64, i64, i64, i64, i64, ptr, i64, i64, i64, %struct.malloc_stats, i64, i64, i64, i64, i64, i64, i64, i64, i64, i64, i64, i64, double, [4 x i64], i64, i64, i64, i64, [128 x i64], [128 x i64], i64, i64, [7 x %struct.anon], i64, i64, i64, i64, i64, i64, [4 x %struct.durationStats], i32, i32, i32, i32, i32, i32, i32, i32, i32, i32, i32, i32, i64, i32, i32, i32, i32, i64, i64, i32, i32, i32, i32, i32, ptr, [3 x %struct.clientBufferLimitsConfig], i32, i32, i32, ptr, i32, i32, i32, i32, i32, i32, ptr, ptr, i32, i32, i64, i64, i64, i64, i64, i32, i32, ptr, i32, i32, i64, i64, i64, i64, i64, i32, i32, i64, i32, i32, i32, i32, i32, i32, i32, i32, ptr, i32, i64, i64, i64, i64, i32, ptr, i32, ptr, i32, i32, i32, i64, i64, i64, i64, i32, i32, i32, i32, i32, i32, ptr, i32, i32, ptr, i32, i32, i32, [2 x i32], i32, %struct.redisOpArray, i32, ptr, i32, ptr, i32, i32, i32, i32, i32, i32, i32, [41 x i8], [41 x i8], i64, i64, i64, i64, i32, i32, ptr, i64, i64, %struct.replDataBuf, i64, i64, i32, i32, i32, i32, i32, i32, i32, i32, i32, i64, ptr, i64, ptr, ptr, ptr, i32, i32, ptr, ptr, i32, i32, i32, i64, i64, i64, i64, ptr, ptr, i32, ptr, i64, i32, i32, i32, i64, i32, i32, i32, i32, ptr, i32, i32, [41 x i8], i64, i32, ptr, i32, i32, i64, i64, i32, i32, i32, i32, i32, i64, [3 x i32], i32, i32, i32, [10 x i32], ptr, ptr, i32, i64, ptr, ptr, i32, i32, i32, i32, i64, i64, i64, i64, i64, i64, i64, i64, i64, i64, i32, i32, i64, i64, i32, i64, i64, i64, i64, i64, ptr, ptr, i32, ptr, i32, i32, i32, i32, i64, i64, ptr, ptr, i32, i32, i32, i32, i32, ptr, ptr, ptr, i32, i32, i32, i32, i32, i32, i32, i64, i32, i32, i64, i32, i32, i32, i32, i32, i32, i32, i64, ptr, ptr, i64, ptr, i32, %struct.aclInfo, i32, i64, i32, i32, i32, %struct.redisTLSContextConfig, ptr, ptr, ptr, ptr, ptr, i64, i32, ptr, i32, i32, i32, i64, i32, ptr }
%struct.connListener = type { [16 x i32], i32, ptr, i32, i32, ptr, ptr }
%struct.pause_event = type { i32, i64 }
%struct.malloc_stats = type { i64, i64, i64, i64, i64, i64, i64, i64, i64, i64, i64 }
%struct.anon = type { i64, i64, [16 x i64], i32 }
%struct.durationStats = type { i64, i64, i64 }
%struct.clientBufferLimitsConfig = type { i64, i64, i64 }
%struct.redisOpArray = type { ptr, i32, i32 }
%struct.replDataBuf = type { ptr, i64, i64, i64, i64 }
%struct.aclInfo = type { i64, i64, i64, i64 }
%struct.redisTLSContextConfig = type { ptr, ptr, ptr, ptr, ptr, ptr, ptr, ptr, ptr, ptr, ptr, ptr, i32, i32, i32, i32 }
%struct.client = type { i64, i64, ptr, i8, i8, i8, i8, i32, ptr, ptr, ptr, ptr, ptr, i64, i64, i32, ptr, i32, i32, ptr, i64, ptr, ptr, ptr, ptr, ptr, i32, i32, i64, ptr, i64, ptr, i64, i64, i64, i32, ptr, i64, i64, i32, i32, i32, i32, i64, i64, ptr, i64, i64, i64, i64, i64, i64, i64, i64, [41 x i8], i32, ptr, i32, i32, i64, %struct.multiState, %struct.blockingState, i64, ptr, ptr, ptr, ptr, ptr, ptr, ptr, ptr, ptr, ptr, ptr, ptr, ptr, ptr, i64, ptr, i64, i32, ptr, ptr, ptr, i64, %struct.listNode, i64, i64, i32, i64, ptr }
%struct.multiState = type { ptr, i32, i32, i32, i64, i32 }
%struct.blockingState = type { i32, i64, i32, ptr, i32, i32, i64, ptr, ptr, i64 }
%struct.listNode = type { ptr, ptr, ptr }
%struct.redisCommand = type { ptr, ptr, ptr, ptr, i32, ptr, ptr, i32, ptr, i32, ptr, i32, ptr, i32, i64, i64, ptr, i32, ptr, i32, ptr, ptr, i64, i64, i64, i64, i32, ptr, ptr, %struct.keySpec, ptr, ptr, ptr }
%struct.keySpec = type { ptr, i64, i32, %union.anon, i32, %union.anon.2 }
%union.anon = type { %struct.anon.1 }
%struct.anon.1 = type { ptr, i32 }
%union.anon.2 = type { %struct.anon.3 }
%struct.anon.3 = type { i32, i32, i32 }

@server = external global %struct.redisServer, align 8
@.str.2 = private unnamed_addr constant [19 x i8] c"command-unblocking\00", align 1

; Function Attrs: nounwind uwtable
define dso_local void @updateStatsOnUnblock(ptr noundef %0, i64 noundef %1, i64 noundef %2, i32 noundef %3) #0 {
  %5 = alloca ptr, align 8
  %6 = alloca i64, align 8
  %7 = alloca i64, align 8
  %8 = alloca i32, align 4
  %9 = alloca i64, align 8
  store ptr %0, ptr %5, align 8, !tbaa !5
  store i64 %1, ptr %6, align 8, !tbaa !58
  store i64 %2, ptr %7, align 8, !tbaa !58
  store i32 %3, ptr %8, align 4, !tbaa !36
  call void @llvm.lifetime.start.p0(i64 8, ptr %9) #8
  %10 = load ptr, ptr %5, align 8, !tbaa !5
  %11 = getelementptr inbounds nuw %struct.client, ptr %10, i32 0, i32 34
  %12 = load i64, ptr %11, align 8, !tbaa !59
  %13 = load i64, ptr %6, align 8, !tbaa !58
  %14 = add nsw i64 %12, %13
  %15 = load i64, ptr %7, align 8, !tbaa !58
  %16 = add nsw i64 %14, %15
  store i64 %16, ptr %9, align 8, !tbaa !60
  %17 = load i64, ptr %9, align 8, !tbaa !60
  %18 = load ptr, ptr %5, align 8, !tbaa !5
  %19 = getelementptr inbounds nuw %struct.client, ptr %18, i32 0, i32 22
  %20 = load ptr, ptr %19, align 8, !tbaa !61
  %21 = getelementptr inbounds nuw %struct.redisCommand, ptr %20, i32 0, i32 22
  %22 = load i64, ptr %21, align 8, !tbaa !62
  %23 = add nsw i64 %22, %17
  store i64 %23, ptr %21, align 8, !tbaa !62
  %24 = load ptr, ptr %5, align 8, !tbaa !5
  %25 = getelementptr inbounds nuw %struct.client, ptr %24, i32 0, i32 22
  %26 = load ptr, ptr %25, align 8, !tbaa !61
  %27 = getelementptr inbounds nuw %struct.redisCommand, ptr %26, i32 0, i32 23
  %28 = load i64, ptr %27, align 8, !tbaa !68
  %29 = add nsw i64 %28, 1
  store i64 %29, ptr %27, align 8, !tbaa !68
  %30 = load i64, ptr getelementptr inbounds nuw (%struct.redisServer, ptr @server, i32 0, i32 92), align 8, !tbaa !69
  %31 = add nsw i64 %30, 1
  store i64 %31, ptr getelementptr inbounds nuw (%struct.redisServer, ptr @server, i32 0, i32 92), align 8, !tbaa !69
  %32 = load i32, ptr %8, align 4, !tbaa !36
  %33 = icmp ne i32 %32, 0
  br i1 %33, label %34, label %41

34:                                               ; preds = %4
  %35 = load ptr, ptr %5, align 8, !tbaa !5
  %36 = getelementptr inbounds nuw %struct.client, ptr %35, i32 0, i32 22
  %37 = load ptr, ptr %36, align 8, !tbaa !61
  %38 = getelementptr inbounds nuw %struct.redisCommand, ptr %37, i32 0, i32 25
  %39 = load i64, ptr %38, align 8, !tbaa !70
  %40 = add nsw i64 %39, 1
  store i64 %40, ptr %38, align 8, !tbaa !70
  br label %41

41:                                               ; preds = %34, %4
  %42 = load i32, ptr getelementptr inbounds nuw (%struct.redisServer, ptr @server, i32 0, i32 187), align 8, !tbaa !71
  %43 = icmp ne i32 %42, 0
  br i1 %43, label %44, label %51

44:                                               ; preds = %41
  %45 = load ptr, ptr %5, align 8, !tbaa !5
  %46 = getelementptr inbounds nuw %struct.client, ptr %45, i32 0, i32 22
  %47 = load ptr, ptr %46, align 8, !tbaa !61
  %48 = getelementptr inbounds nuw %struct.redisCommand, ptr %47, i32 0, i32 28
  %49 = load i64, ptr %9, align 8, !tbaa !60
  %50 = mul nsw i64 %49, 1000
  call void @updateCommandLatencyHistogram(ptr noundef %48, i64 noundef %50)
  br label %51

51:                                               ; preds = %44, %41
  %52 = load ptr, ptr %5, align 8, !tbaa !5
  %53 = load ptr, ptr %5, align 8, !tbaa !5
  %54 = getelementptr inbounds nuw %struct.client, ptr %53, i32 0, i32 22
  %55 = load ptr, ptr %54, align 8, !tbaa !61
  %56 = load i64, ptr %9, align 8, !tbaa !60
  call void @slowlogPushCurrentCommand(ptr noundef %52, ptr noundef %55, i64 noundef %56)
  %57 = load ptr, ptr %5, align 8, !tbaa !5
  %58 = getelementptr inbounds nuw %struct.client, ptr %57, i32 0, i32 34
  store i64 0, ptr %58, align 8, !tbaa !59
  %59 = load i64, ptr getelementptr inbounds nuw (%struct.redisServer, ptr @server, i32 0, i32 412), align 8, !tbaa !72
  %60 = icmp ne i64 %59, 0
  br i1 %60, label %61, label %69

61:                                               ; preds = %51
  %62 = load i64, ptr %7, align 8, !tbaa !58
  %63 = sdiv i64 %62, 1000
  %64 = load i64, ptr getelementptr inbounds nuw (%struct.redisServer, ptr @server, i32 0, i32 412), align 8, !tbaa !72
  %65 = icmp sge i64 %63, %64
  br i1 %65, label %66, label %69

66:                                               ; preds = %61
  %67 = load i64, ptr %7, align 8, !tbaa !58
  %68 = sdiv i64 %67, 1000
  call void @latencyAddSample(ptr noundef @.str.2, i64 noundef %68)
  br label %69

69:                                               ; preds = %66, %61, %51
  call void @llvm.lifetime.end.p0(i64 8, ptr %9) #8
  ret void
}

; Function Attrs: nounwind uwtable
define dso_local void @unblockClientOnError(ptr noundef %0, ptr noundef %1) #0 {
  %3 = alloca ptr, align 8
  %4 = alloca ptr, align 8
  store ptr %0, ptr %3, align 8, !tbaa !5
  store ptr %1, ptr %4, align 8, !tbaa !93
  %5 = load ptr, ptr %4, align 8, !tbaa !93
  %6 = icmp ne ptr %5, null
  br i1 %6, label %7, label %10

7:                                                ; preds = %2
  %8 = load ptr, ptr %3, align 8, !tbaa !5
  %9 = load ptr, ptr %4, align 8, !tbaa !93
  call void @addReplyError(ptr noundef %8, ptr noundef %9)
  br label %10

10:                                               ; preds = %7, %2
  %11 = load ptr, ptr %3, align 8, !tbaa !5
  call void @updateStatsOnUnblock(ptr noundef %11, i64 noundef 0, i64 noundef 0, i32 noundef 1)
  %12 = load ptr, ptr %3, align 8, !tbaa !5
  %13 = getelementptr inbounds nuw %struct.client, ptr %12, i32 0, i32 1
  %14 = load i64, ptr %13, align 8, !tbaa !37
  %15 = and i64 %14, 1073741824
  %16 = icmp ne i64 %15, 0
  br i1 %16, label %17, label %22

17:                                               ; preds = %10
  %18 = load ptr, ptr %3, align 8, !tbaa !5
  %19 = getelementptr inbounds nuw %struct.client, ptr %18, i32 0, i32 1
  %20 = load i64, ptr %19, align 8, !tbaa !37
  %21 = and i64 %20, -1073741825
  store i64 %21, ptr %19, align 8, !tbaa !37
  br label %22

22:                                               ; preds = %17, %10
  %23 = load ptr, ptr %3, align 8, !tbaa !5
  call void @unblockClient(ptr noundef %23, i32 noundef 1)
  ret void
}