; Function Attrs: nounwind uwtable
define dso_local void @unblockClientOnError(ptr noundef %0, ptr noundef %1) local_unnamed_addr #0 {
  %.not = icmp eq ptr %1, null
  br i1 %.not, label %4, label %3

3:                                                ; preds = %2
  tail call void @addReplyError(ptr noundef %0, ptr noundef nonnull %1) #5
  br label %4

4:                                                ; preds = %3, %2
  %5 = getelementptr inbounds nuw i8, ptr %0, i64 224
  %6 = load i64, ptr %5, align 8, !tbaa !57
  %7 = getelementptr inbounds nuw i8, ptr %0, i64 136
  %8 = load ptr, ptr %7, align 8, !tbaa !58
  %9 = getelementptr inbounds nuw i8, ptr %8, i64 176
  %10 = load i64, ptr %9, align 8, !tbaa !59
  %11 = add nsw i64 %10, %6
  store i64 %11, ptr %9, align 8, !tbaa !59
  %12 = getelementptr inbounds nuw i8, ptr %8, i64 184
  %13 = load i64, ptr %12, align 8, !tbaa !65
  %14 = add nsw i64 %13, 1
  store i64 %14, ptr %12, align 8, !tbaa !65
  %15 = load i64, ptr getelementptr inbounds nuw (i8, ptr @server, i64 2472), align 8, !tbaa !66
  %16 = add nsw i64 %15, 1
  store i64 %16, ptr getelementptr inbounds nuw (i8, ptr @server, i64 2472), align 8, !tbaa !66
  %17 = getelementptr inbounds nuw i8, ptr %8, i64 200
  %18 = load i64, ptr %17, align 8, !tbaa !67
  %19 = add nsw i64 %18, 1
  store i64 %19, ptr %17, align 8, !tbaa !67
  %20 = load i32, ptr getelementptr inbounds nuw (i8, ptr @server, i64 6488), align 8, !tbaa !68
  %.not16.i = icmp eq i32 %20, 0
  br i1 %.not16.i, label %24, label %21

21:                                               ; preds = %4
  %22 = getelementptr inbounds nuw i8, ptr %8, i64 224
  %23 = mul nsw i64 %6, 1000
  tail call void @updateCommandLatencyHistogram(ptr noundef nonnull %22, i64 noundef %23) #5
  %.pre.i = load ptr, ptr %7, align 8, !tbaa !58
  br label %24

24:                                               ; preds = %21, %4
  %25 = phi ptr [ %.pre.i, %21 ], [ %8, %4 ]
  tail call void @slowlogPushCurrentCommand(ptr noundef nonnull %0, ptr noundef %25, i64 noundef %6) #5
  store i64 0, ptr %5, align 8, !tbaa !57
  %26 = load i64, ptr getelementptr inbounds nuw (i8, ptr @server, i64 8064), align 8, !tbaa !69
  %or.cond = icmp sgt i64 %26, -1
  br i1 %or.cond, label %updateStatsOnUnblock.exit, label %27

27:                                               ; preds = %24
  tail call void @latencyAddSample(ptr noundef nonnull @.str.2, i64 noundef 0) #5
  br label %updateStatsOnUnblock.exit

updateStatsOnUnblock.exit:                        ; preds = %24, %27
  %28 = getelementptr inbounds nuw i8, ptr %0, i64 8
  %29 = load i64, ptr %28, align 8, !tbaa !34
  %30 = and i64 %29, 1073741824
  %.not7 = icmp eq i64 %30, 0
  br i1 %.not7, label %33, label %31

31:                                               ; preds = %updateStatsOnUnblock.exit
  %32 = and i64 %29, -1073741825
  store i64 %32, ptr %28, align 8, !tbaa !34
  br label %33

33:                                               ; preds = %31, %updateStatsOnUnblock.exit
  tail call void @unblockClient(ptr noundef nonnull %0, i32 noundef 1)
  ret void
}